; Function Attrs: mustprogress nounwind uwtable
define dso_local void @_ZNSt3__121recursive_timed_mutexD2Ev(ptr noundef nonnull align 8 dereferenceable(104) %0) unnamed_addr #3 align 2 personality ptr @__gxx_personality_v0 {
  %2 = tail call noundef i32 @pthread_mutex_lock(ptr noundef nonnull align 8 dereferenceable(40) %0) #10
  %.not.i.i = icmp eq i32 %2, 0
  br i1 %.not.i.i, label %_ZNSt3__110lock_guardINS_5mutexEEC2B8ne210000ERS1_.exit, label %3

3:                                                ; preds = %1
  invoke void @_ZNSt3__120__throw_system_errorEiPKc(i32 noundef %2, ptr noundef nonnull @.str) #11
          to label %.noexc unwind label %6

.noexc:                                           ; preds = %3
  unreachable

_ZNSt3__110lock_guardINS_5mutexEEC2B8ne210000ERS1_.exit: ; preds = %1
  %4 = tail call noundef i32 @pthread_mutex_unlock(ptr noundef nonnull align 8 dereferenceable(40) %0) #10
  %5 = getelementptr inbounds nuw i8, ptr %0, i64 40
  tail call void @_ZNSt3__118condition_variableD1Ev(ptr noundef nonnull align 8 dereferenceable(48) %5) #10
  ret void

6:                                                ; preds = %3
  %7 = landingpad { ptr, i32 }
          catch ptr null
  %8 = extractvalue { ptr, i32 } %7, 0
  tail call void @__clang_call_terminate(ptr %8) #12
  unreachable
}